; ModuleID = '34/2538.c'
source_filename = "34/2538.c"
target datalayout = "e-m:e-p270:32:32-p271:32:32-p272:64:64-i64:64-f80:128-n8:16:32:64-S128"
target triple = "x86_64-pc-linux-gnu"

@.str = private unnamed_addr constant [3 x i8] c"%d\00", align 1
@.str.1 = private unnamed_addr constant [9 x i8] c"%d/2=%d\0A\00", align 1
@.str.2 = private unnamed_addr constant [11 x i8] c"%d*3+1=%d\0A\00", align 1
@.str.3 = private unnamed_addr constant [4 x i8] c"End\00", align 1

; Function Attrs: noinline nounwind uwtable
define dso_local i32 @main() #0 {
  %1 = alloca i32, align 4
  %2 = alloca i32, align 4
  %3 = alloca i32, align 4
  %4 = alloca i32, align 4
  %5 = alloca i32, align 4
  %6 = alloca i32, align 4
  %7 = alloca i32, align 4
  %8 = alloca i32, align 4
  store i32 0, i32* %1, align 4
  %9 = call i32 (i8*, ...) @__isoc99_scanf(i8* getelementptr inbounds ([3 x i8], [3 x i8]* @.str, i64 0, i64 0), i32* %2)
  %10 = load i32, i32* %2, align 4
  %11 = icmp ne i32 %10, 1
  br i1 %11, label %12, label %37

12:                                               ; preds = %0
  br label %13

13:                                               ; preds = %35, %12
  %14 = load i32, i32* %2, align 4
  %15 = icmp ne i32 %14, 1
  br i1 %15, label %16, label %36

16:                                               ; preds = %13
  %17 = load i32, i32* %2, align 4
  %18 = srem i32 %17, 2
  %19 = icmp eq i32 %18, 0
  br i1 %19, label %20, label %27

20:                                               ; preds = %16
  %21 = load i32, i32* %2, align 4
  %22 = sdiv i32 %21, 2
  store i32 %22, i32* %3, align 4
  %23 = load i32, i32* %2, align 4
  %24 = load i32, i32* %3, align 4
  %25 = call i32 (i8*, ...) @printf(i8* getelementptr inbounds ([9 x i8], [9 x i8]* @.str.1, i64 0, i64 0), i32 %23, i32 %24)
  %26 = load i32, i32* %3, align 4
  store i32 %26, i32* %2, align 4
  br label %35

27:                                               ; preds = %16
  %28 = load i32, i32* %2, align 4
  %29 = mul nsw i32 %28, 3
  %30 = add nsw i32 %29, 1
  store i32 %30, i32* %3, align 4
  %31 = load i32, i32* %2, align 4
  %32 = load i32, i32* %3, align 4
  %33 = call i32 (i8*, ...) @printf(i8* getelementptr inbounds ([11 x i8], [11 x i8]* @.str.2, i64 0, i64 0), i32 %31, i32 %32)
  %34 = load i32, i32* %3, align 4
  store i32 %34, i32* %2, align 4
  br label %35

35:                                               ; preds = %27, %20
  br label %13

36:                                               ; preds = %13
  br label %37

37:                                               ; preds = %36, %0
  %38 = call i32 (i8*, ...) @printf(i8* getelementptr inbounds ([4 x i8], [4 x i8]* @.str.3, i64 0, i64 0))
  %39 = load i32, i32* %1, align 4
  ret i32 %39
}

declare dso_local i32 @__isoc99_scanf(i8*, ...) #1

declare dso_local i32 @printf(i8*, ...) #1


!llvm.module.flags = !{!0}
!llvm.ident = !{!1}

!0 = !{i32 1, !"wchar_size", i32 4}
!1 = !{!"clang version 10.0.0-4ubuntu1 "}
